target datalayout = "e-m:e-p270:32:32-p271:32:32-p272:64:64-i64:64-i128:128-f80:128-n8:16:32:64-S128"
target triple = "x86_64-pc-linux-gnu"

%"class.net::QuicReceivedPacketManager::EntropyTracker" = type { %"class.std::deque", i8, i64, i64 }
%"class.std::deque" = type { %"class.std::_Deque_base" }
%"class.std::_Deque_base" = type { %"struct.std::_Deque_base<std::pair<unsigned char, bool>, std::allocator<std::pair<unsigned char, bool>>>::_Deque_impl" }
%"struct.std::_Deque_base<std::pair<unsigned char, bool>, std::allocator<std::pair<unsigned char, bool>>>::_Deque_impl" = type { %"struct.std::_Deque_base<std::pair<unsigned char, bool>, std::allocator<std::pair<unsigned char, bool>>>::_Deque_impl_data" }
%"struct.std::_Deque_base<std::pair<unsigned char, bool>, std::allocator<std::pair<unsigned char, bool>>>::_Deque_impl_data" = type { ptr, i64, %"struct.std::_Deque_iterator", %"struct.std::_Deque_iterator" }
%"struct.std::_Deque_iterator" = type { ptr, ptr, ptr, ptr }
%"class.net::QuicReceivedPacketManager" = type { %"class.net::QuicReceivedEntropyHashCalculatorInterface", %"class.net::QuicReceivedPacketManager::EntropyTracker", i64, %"struct.net::QuicAckFrame", i8, %"class.net::QuicTime", ptr }
%"class.net::QuicReceivedEntropyHashCalculatorInterface" = type { ptr }
%"struct.net::QuicAckFrame" = type <{ i64, %"class.net::QuicTime::Delta", %"class.std::vector", %"class.net::PacketNumberQueue", i8, i8, i8, i8, [4 x i8] }>
%"class.net::QuicTime::Delta" = type { %"class.base::TimeDelta", i64 }
%"class.base::TimeDelta" = type { i64 }
%"class.std::vector" = type { %"struct.std::_Vector_base" }
%"struct.std::_Vector_base" = type { %"struct.std::_Vector_base<std::pair<unsigned long, net::QuicTime>, std::allocator<std::pair<unsigned long, net::QuicTime>>>::_Vector_impl" }
%"struct.std::_Vector_base<std::pair<unsigned long, net::QuicTime>, std::allocator<std::pair<unsigned long, net::QuicTime>>>::_Vector_impl" = type { %"struct.std::_Vector_base<std::pair<unsigned long, net::QuicTime>, std::allocator<std::pair<unsigned long, net::QuicTime>>>::_Vector_impl_data" }
%"struct.std::_Vector_base<std::pair<unsigned long, net::QuicTime>, std::allocator<std::pair<unsigned long, net::QuicTime>>>::_Vector_impl_data" = type { ptr, ptr, ptr }
%"class.net::PacketNumberQueue" = type { %"class.net::IntervalSet" }
%"class.net::IntervalSet" = type { %"class.std::set" }
%"class.std::set" = type { %"class.std::_Rb_tree" }
%"class.std::_Rb_tree" = type { %"struct.std::_Rb_tree<net::Interval<unsigned long>, net::Interval<unsigned long>, std::_Identity<net::Interval<unsigned long>>, net::IntervalSet<unsigned long>::IntervalComparator>::_Rb_tree_impl" }
%"struct.std::_Rb_tree<net::Interval<unsigned long>, net::Interval<unsigned long>, std::_Identity<net::Interval<unsigned long>>, net::IntervalSet<unsigned long>::IntervalComparator>::_Rb_tree_impl" = type { [8 x i8], %"struct.std::_Rb_tree_header" }
%"struct.std::_Rb_tree_header" = type { %"struct.std::_Rb_tree_node_base", i64 }
%"struct.std::_Rb_tree_node_base" = type { i32, ptr, ptr, ptr }
%"class.net::QuicTime" = type { i64 }

; Function Attrs: inlinehint mustprogress nounwind uwtable
define linkonce_odr noundef nonnull align 8 dereferenceable(8) ptr @_ZSt3maxImERKT_S2_S2_(ptr noundef nonnull align 8 dereferenceable(8) %0, ptr noundef nonnull align 8 dereferenceable(8) %1) #5 comdat {
  %3 = alloca ptr, align 8
  %4 = alloca ptr, align 8
  %5 = alloca ptr, align 8
  store ptr %0, ptr %4, align 8, !tbaa !131
  store ptr %1, ptr %5, align 8, !tbaa !131
  %6 = load ptr, ptr %4, align 8, !tbaa !131
  %7 = load i64, ptr %6, align 8, !tbaa !22
  %8 = load ptr, ptr %5, align 8, !tbaa !131
  %9 = load i64, ptr %8, align 8, !tbaa !22
  %10 = icmp ult i64 %7, %9
  br i1 %10, label %11, label %13

11:                                               ; preds = %2
  %12 = load ptr, ptr %5, align 8, !tbaa !131
  store ptr %12, ptr %3, align 8
  br label %15

13:                                               ; preds = %2
  %14 = load ptr, ptr %4, align 8, !tbaa !131
  store ptr %14, ptr %3, align 8
  br label %15

15:                                               ; preds = %13, %11
  %16 = load ptr, ptr %3, align 8
  ret ptr %16
}

; Function Attrs: mustprogress uwtable
define noundef zeroext i1 @_ZNK3net25QuicReceivedPacketManager17HasMissingPacketsEv(ptr noundef nonnull align 8 dereferenceable(248) %0) #0 align 2 {
  %2 = alloca i1, align 1
  %3 = alloca ptr, align 8
  %4 = alloca i64, align 8
  store ptr %0, ptr %3, align 8, !tbaa !73
  %5 = load ptr, ptr %3, align 8
  %6 = getelementptr inbounds nuw %"class.net::QuicReceivedPacketManager", ptr %5, i32 0, i32 3
  %7 = getelementptr inbounds nuw %"struct.net::QuicAckFrame", ptr %6, i32 0, i32 7
  %8 = load i8, ptr %7, align 1, !tbaa !120, !range !50, !noundef !51
  %9 = trunc i8 %8 to i1
  br i1 %9, label %10, label %15

10:                                               ; preds = %1
  %11 = getelementptr inbounds nuw %"class.net::QuicReceivedPacketManager", ptr %5, i32 0, i32 3
  %12 = getelementptr inbounds nuw %"struct.net::QuicAckFrame", ptr %11, i32 0, i32 3
  %13 = call noundef zeroext i1 @_ZNK3net17PacketNumberQueue5EmptyEv(ptr noundef nonnull align 8 dereferenceable(48) %12)
  %14 = xor i1 %13, true
  store i1 %14, ptr %2, align 1
  br label %36

15:                                               ; preds = %1
  %16 = getelementptr inbounds nuw %"class.net::QuicReceivedPacketManager", ptr %5, i32 0, i32 3
  %17 = getelementptr inbounds nuw %"struct.net::QuicAckFrame", ptr %16, i32 0, i32 3
  %18 = call noundef i64 @_ZNK3net17PacketNumberQueue12NumIntervalsEv(ptr noundef nonnull align 8 dereferenceable(48) %17)
  %19 = icmp ugt i64 %18, 1
  call void @llvm.lifetime.start.p0(i64 8, ptr %4) #14
  br i1 %19, label %34, label %20

20:                                               ; preds = %15
  %21 = getelementptr inbounds nuw %"class.net::QuicReceivedPacketManager", ptr %5, i32 0, i32 3
  %22 = getelementptr inbounds nuw %"struct.net::QuicAckFrame", ptr %21, i32 0, i32 3
  %23 = call noundef zeroext i1 @_ZNK3net17PacketNumberQueue5EmptyEv(ptr noundef nonnull align 8 dereferenceable(48) %22)
  br i1 %23, label %32, label %24

24:                                               ; preds = %20
  %25 = getelementptr inbounds nuw %"class.net::QuicReceivedPacketManager", ptr %5, i32 0, i32 3
  %26 = getelementptr inbounds nuw %"struct.net::QuicAckFrame", ptr %25, i32 0, i32 3
  %27 = call noundef i64 @_ZNK3net17PacketNumberQueue3MinEv(ptr noundef nonnull align 8 dereferenceable(48) %26)
  store i64 1, ptr %4, align 8, !tbaa !22
  %28 = getelementptr inbounds nuw %"class.net::QuicReceivedPacketManager", ptr %5, i32 0, i32 2
  %29 = call noundef nonnull align 8 dereferenceable(8) ptr @_ZSt3maxImERKT_S2_S2_(ptr noundef nonnull align 8 dereferenceable(8) %4, ptr noundef nonnull align 8 dereferenceable(8) %28)
  %30 = load i64, ptr %29, align 8, !tbaa !22
  %31 = icmp ugt i64 %27, %30
  br label %32

32:                                               ; preds = %24, %20
  %33 = phi i1 [ false, %20 ], [ %31, %24 ]
  br label %34

34:                                               ; preds = %32, %15
  %35 = phi i1 [ true, %15 ], [ %33, %32 ]
  store i1 %35, ptr %2, align 1
  call void @llvm.lifetime.end.p0(i64 8, ptr %4) #14
  br label %36

36:                                               ; preds = %34, %10
  %37 = load i1, ptr %2, align 1
  ret i1 %37
}

; Function Attrs: mustprogress uwtable
define noundef zeroext i1 @_ZNK3net25QuicReceivedPacketManager20HasNewMissingPacketsEv(ptr noundef nonnull align 8 dereferenceable(248) %0) unnamed_addr #0 align 2 {
  %2 = alloca i1, align 1
  %3 = alloca ptr, align 8
  store ptr %0, ptr %3, align 8, !tbaa !73
  %4 = load ptr, ptr %3, align 8
  %5 = getelementptr inbounds nuw %"class.net::QuicReceivedPacketManager", ptr %4, i32 0, i32 3
  %6 = getelementptr inbounds nuw %"struct.net::QuicAckFrame", ptr %5, i32 0, i32 7
  %7 = load i8, ptr %6, align 1, !tbaa !120, !range !50, !noundef !51
  %8 = trunc i8 %7 to i1
  br i1 %8, label %9, label %24

9:                                                ; preds = %1
  %10 = getelementptr inbounds nuw %"class.net::QuicReceivedPacketManager", ptr %4, i32 0, i32 3
  %11 = getelementptr inbounds nuw %"struct.net::QuicAckFrame", ptr %10, i32 0, i32 3
  %12 = call noundef zeroext i1 @_ZNK3net17PacketNumberQueue5EmptyEv(ptr noundef nonnull align 8 dereferenceable(48) %11)
  br i1 %12, label %22, label %13

13:                                               ; preds = %9
  %14 = getelementptr inbounds nuw %"class.net::QuicReceivedPacketManager", ptr %4, i32 0, i32 3
  %15 = getelementptr inbounds nuw %"struct.net::QuicAckFrame", ptr %14, i32 0, i32 0
  %16 = load i64, ptr %15, align 8, !tbaa !104
  %17 = getelementptr inbounds nuw %"class.net::QuicReceivedPacketManager", ptr %4, i32 0, i32 3
  %18 = getelementptr inbounds nuw %"struct.net::QuicAckFrame", ptr %17, i32 0, i32 3
  %19 = call noundef i64 @_ZNK3net17PacketNumberQueue3MaxEv(ptr noundef nonnull align 8 dereferenceable(48) %18)
  %20 = sub i64 %16, %19
  %21 = icmp ule i64 %20, 4
  br label %22

22:                                               ; preds = %13, %9
  %23 = phi i1 [ false, %9 ], [ %21, %13 ]
  store i1 %23, ptr %2, align 1
  br label %33

24:                                               ; preds = %1
  %25 = call noundef zeroext i1 @_ZNK3net25QuicReceivedPacketManager17HasMissingPacketsEv(ptr noundef nonnull align 8 dereferenceable(248) %4)
  br i1 %25, label %26, label %31

26:                                               ; preds = %24
  %27 = getelementptr inbounds nuw %"class.net::QuicReceivedPacketManager", ptr %4, i32 0, i32 3
  %28 = getelementptr inbounds nuw %"struct.net::QuicAckFrame", ptr %27, i32 0, i32 3
  %29 = call noundef i64 @_ZNK3net17PacketNumberQueue18LastIntervalLengthEv(ptr noundef nonnull align 8 dereferenceable(48) %28)
  %30 = icmp ule i64 %29, 4
  br label %31

31:                                               ; preds = %26, %24
  %32 = phi i1 [ false, %24 ], [ %30, %26 ]
  store i1 %32, ptr %2, align 1
  br label %33

33:                                               ; preds = %31, %22
  %34 = load i1, ptr %2, align 1
  ret i1 %34
}