; Function Attrs: mustprogress uwtable
define noundef zeroext i1 @_ZNK3net25QuicReceivedPacketManager20HasNewMissingPacketsEv(ptr noundef nonnull align 8 dereferenceable(248) %0) unnamed_addr #0 align 2 {
  %2 = getelementptr inbounds nuw i8, ptr %0, i64 120
  %3 = getelementptr inbounds nuw i8, ptr %0, i64 219
  %4 = load i8, ptr %3, align 1, !tbaa !99, !range !41, !noundef !42
  %5 = trunc nuw i8 %4 to i1
  %6 = getelementptr inbounds nuw i8, ptr %0, i64 168
  br i1 %5, label %7, label %14

7:                                                ; preds = %1
  %8 = tail call noundef zeroext i1 @_ZNK3net17PacketNumberQueue5EmptyEv(ptr noundef nonnull align 8 dereferenceable(48) %6)
  br i1 %8, label %_ZNK3net25QuicReceivedPacketManager17HasMissingPacketsEv.exit.thread3, label %9

9:                                                ; preds = %7
  %10 = load i64, ptr %2, align 8, !tbaa !85
  %11 = tail call noundef i64 @_ZNK3net17PacketNumberQueue3MaxEv(ptr noundef nonnull align 8 dereferenceable(48) %6)
  %12 = sub i64 %10, %11
  %13 = icmp ult i64 %12, 5
  br label %_ZNK3net25QuicReceivedPacketManager17HasMissingPacketsEv.exit.thread3

14:                                               ; preds = %1
  %15 = tail call noundef i64 @_ZNK3net17PacketNumberQueue12NumIntervalsEv(ptr noundef nonnull align 8 dereferenceable(48) %6)
  %16 = icmp ugt i64 %15, 1
  br i1 %16, label %_ZNK3net25QuicReceivedPacketManager17HasMissingPacketsEv.exit.thread, label %17

17:                                               ; preds = %14
  %18 = tail call noundef zeroext i1 @_ZNK3net17PacketNumberQueue5EmptyEv(ptr noundef nonnull align 8 dereferenceable(48) %6)
  br i1 %18, label %_ZNK3net25QuicReceivedPacketManager17HasMissingPacketsEv.exit.thread3, label %_ZNK3net25QuicReceivedPacketManager17HasMissingPacketsEv.exit

_ZNK3net25QuicReceivedPacketManager17HasMissingPacketsEv.exit: ; preds = %17
  %19 = tail call noundef i64 @_ZNK3net17PacketNumberQueue3MinEv(ptr noundef nonnull align 8 dereferenceable(48) %6)
  %20 = getelementptr inbounds nuw i8, ptr %0, i64 112
  %21 = load i64, ptr %20, align 8, !tbaa !100
  %.sroa.speculated.i = tail call i64 @llvm.umax.i64(i64 %21, i64 1)
  %22 = icmp ugt i64 %19, %.sroa.speculated.i
  br i1 %22, label %_ZNK3net25QuicReceivedPacketManager17HasMissingPacketsEv.exit.thread, label %_ZNK3net25QuicReceivedPacketManager17HasMissingPacketsEv.exit.thread3

_ZNK3net25QuicReceivedPacketManager17HasMissingPacketsEv.exit.thread: ; preds = %14, %_ZNK3net25QuicReceivedPacketManager17HasMissingPacketsEv.exit
  %23 = tail call noundef i64 @_ZNK3net17PacketNumberQueue18LastIntervalLengthEv(ptr noundef nonnull align 8 dereferenceable(48) %6)
  %24 = icmp ult i64 %23, 5
  br label %_ZNK3net25QuicReceivedPacketManager17HasMissingPacketsEv.exit.thread3

_ZNK3net25QuicReceivedPacketManager17HasMissingPacketsEv.exit.thread3: ; preds = %17, %_ZNK3net25QuicReceivedPacketManager17HasMissingPacketsEv.exit, %_ZNK3net25QuicReceivedPacketManager17HasMissingPacketsEv.exit.thread, %7, %9
  %.0 = phi i1 [ false, %7 ], [ %13, %9 ], [ false, %_ZNK3net25QuicReceivedPacketManager17HasMissingPacketsEv.exit ], [ %24, %_ZNK3net25QuicReceivedPacketManager17HasMissingPacketsEv.exit.thread ], [ false, %17 ]
  ret i1 %.0
}